target datalayout = "e-m:e-p270:32:32-p271:32:32-p272:64:64-i64:64-i128:128-f80:128-n8:16:32:64-S128"
target triple = "x86_64-pc-linux-gnu"

%class.OopHandle = type { ptr }
%struct.UnifiedOopRef = type { i64 }
%struct.RootCallbackInfo = type { ptr, ptr, ptr, i32, i32 }
%class.ReferenceToThreadRootClosure = type <{ ptr, i8, [7 x i8] }>
%class.Thread = type { %class.ThreadShadow.base, i64, [43 x i64], ptr, ptr, i32, ptr, i64, i64, %class.ThreadLocalAllocBuffer, i64, %class.ThreadHeapSampler, %class.ThreadStatisticalInfo, %class.JfrThreadLocal, ptr, ptr, ptr, ptr, ptr, ptr, i64, i32, i32, ptr, i32, i32, i32, i32, i8, ptr }
%class.ThreadShadow.base = type <{ ptr, ptr, ptr, i32 }>
%class.ThreadLocalAllocBuffer = type <{ ptr, ptr, ptr, ptr, ptr, i64, i64, i64, i64, i32, i32, i32, i32, i64, %class.AdaptiveWeightedAverage, [4 x i8] }>
%class.AdaptiveWeightedAverage = type { float, i32, i32, i8, float }
%class.ThreadHeapSampler = type { i64 }
%class.ThreadStatisticalInfo = type { i64, i64 }
%class.JfrThreadLocal = type <{ ptr, ptr, ptr, ptr, ptr, ptr, ptr, ptr, ptr, ptr, %class.RefCountHandle, i64, i64, i64, i64, i64, i64, i64, i64, i64, i64, i64, i32, i32, i32, i16, i8, i8, i8, i8, i8, [5 x i8] }>
%class.RefCountHandle = type { ptr }
%class.JavaThread = type { %class.Thread, i8, %class.OopHandle, %class.OopHandle, %class.OopHandle, %class.OopHandle, %class.JavaFrameAnchor, ptr, %struct.JNIEnv_, ptr, ptr, ptr, ptr, ptr, ptr, ptr, ptr, %class.MemRegion, ptr, i8, ptr, ptr, ptr, i32, i32, %"struct.SafepointMechanism::ThreadData", ptr, ptr, i32, i32, i8, i8, i8, i8, i8, i8, i8, i32, i8, i32, i8, i8, i64, %union.anon, ptr, ptr, i64, i64, ptr, ptr, %class.StackOverflow, ptr, ptr, ptr, i32, i32, ptr, i32, i32, i32, ptr, ptr, i32, i64, i64, %class.StackWatermarks, %class.HandshakeState, ptr, i32, ptr, i32, i32, ptr, %class.Parker, ptr, ptr, %class.LockStack }
%class.JavaFrameAnchor = type { ptr, ptr, ptr }
%struct.JNIEnv_ = type { ptr }
%class.MemRegion = type { ptr, i64 }
%"struct.SafepointMechanism::ThreadData" = type { i64, i64 }
%union.anon = type { ptr }
%class.StackOverflow = type { i32, ptr, ptr, ptr, ptr, ptr, ptr }
%class.StackWatermarks = type { ptr }
%class.HandshakeState = type <{ ptr, %class.FilterQueue, %class.Monitor, ptr, i8, i8, i8, [5 x i8] }>
%class.FilterQueue = type { ptr }
%class.Monitor = type { %class.Mutex }
%class.Mutex = type { ptr, %class.PlatformMonitor, ptr }
%class.PlatformMonitor = type { %class.PlatformMutex, %union.pthread_cond_t }
%class.PlatformMutex = type { %union.pthread_mutex_t }
%union.pthread_mutex_t = type { %struct.__pthread_mutex_s }
%struct.__pthread_mutex_s = type { i32, i32, i32, i32, i32, i16, i16, %struct.__pthread_internal_list }
%struct.__pthread_internal_list = type { ptr, ptr }
%union.pthread_cond_t = type { %struct.__pthread_cond_s }
%struct.__pthread_cond_s = type { %union.__atomic_wide_counter, %union.__atomic_wide_counter, [2 x i32], [2 x i32], i32, i32, [2 x i32] }
%union.__atomic_wide_counter = type { i64 }
%class.Parker = type { %class.PlatformParker }
%class.PlatformParker = type { i32, i32, [1 x %union.pthread_mutex_t], [2 x %union.pthread_cond_t] }
%class.LockStack = type { i32, i64, [8 x ptr] }

@_ZN13StackOverflow20_stack_red_zone_sizeE = external global i64, align 8
@_ZN13StackOverflow23_stack_yellow_zone_sizeE = external global i64, align 8
@_ZN13StackOverflow25_stack_reserved_zone_sizeE = external global i64, align 8

; Function Attrs: mustprogress nounwind uwtable
define linkonce_odr hidden noundef ptr @_ZNK6Thread10stack_baseEv(ptr noundef nonnull align 8 dereferenceable(888) %0) #1 comdat align 2 {
  %2 = alloca ptr, align 8
  store ptr %0, ptr %2, align 8
  %3 = load ptr, ptr %2, align 8
  %4 = getelementptr inbounds %class.Thread, ptr %3, i32 0, i32 19
  %5 = load ptr, ptr %4, align 8
  ret ptr %5
}

; Function Attrs: mustprogress nounwind uwtable
define linkonce_odr hidden noundef zeroext i1 @_ZNK6Thread17is_in_stack_rangeEPhS0_b(ptr noundef nonnull align 8 dereferenceable(888) %0, ptr noundef %1, ptr noundef %2, i1 noundef zeroext %3) #1 comdat align 2 {
  %5 = alloca ptr, align 8
  %6 = alloca ptr, align 8
  %7 = alloca ptr, align 8
  %8 = alloca i8, align 1
  store ptr %0, ptr %5, align 8
  store ptr %1, ptr %6, align 8
  store ptr %2, ptr %7, align 8
  %9 = zext i1 %3 to i8
  store i8 %9, ptr %8, align 1
  %10 = load ptr, ptr %5, align 8
  %11 = call noundef ptr @_ZNK6Thread10stack_baseEv(ptr noundef nonnull align 8 dereferenceable(888) %10)
  %12 = load ptr, ptr %6, align 8
  %13 = icmp ugt ptr %11, %12
  br i1 %13, label %14, label %27

14:                                               ; preds = %4
  %15 = load i8, ptr %8, align 1
  %16 = trunc i8 %15 to i1
  br i1 %16, label %17, label %21

17:                                               ; preds = %14
  %18 = load ptr, ptr %6, align 8
  %19 = load ptr, ptr %7, align 8
  %20 = icmp uge ptr %18, %19
  br label %25

21:                                               ; preds = %14
  %22 = load ptr, ptr %6, align 8
  %23 = load ptr, ptr %7, align 8
  %24 = icmp ugt ptr %22, %23
  br label %25

25:                                               ; preds = %21, %17
  %26 = phi i1 [ %20, %17 ], [ %24, %21 ]
  br label %27

27:                                               ; preds = %25, %4
  %28 = phi i1 [ false, %4 ], [ %26, %25 ]
  ret i1 %28
}

; Function Attrs: mustprogress nounwind uwtable
define linkonce_odr hidden noundef i64 @_ZN13StackOverflow24stack_reserved_zone_sizeEv() #1 comdat align 2 {
  %1 = load i64, ptr @_ZN13StackOverflow25_stack_reserved_zone_sizeE, align 8
  ret i64 %1
}

; Function Attrs: mustprogress nounwind uwtable
define linkonce_odr hidden noundef i64 @_ZN13StackOverflow22stack_yellow_zone_sizeEv() #1 comdat align 2 {
  %1 = load i64, ptr @_ZN13StackOverflow23_stack_yellow_zone_sizeE, align 8
  ret i64 %1
}

; Function Attrs: mustprogress nounwind uwtable
define linkonce_odr hidden noundef i64 @_ZN13StackOverflow19stack_red_zone_sizeEv() #1 comdat align 2 {
  %1 = load i64, ptr @_ZN13StackOverflow20_stack_red_zone_sizeE, align 8
  ret i64 %1
}

; Function Attrs: mustprogress nounwind uwtable
define linkonce_odr hidden noundef ptr @_ZNK13StackOverflow9stack_endEv(ptr noundef nonnull align 8 dereferenceable(56) %0) #1 comdat align 2 {
  %2 = alloca ptr, align 8
  store ptr %0, ptr %2, align 8
  %3 = load ptr, ptr %2, align 8
  %4 = getelementptr inbounds %class.StackOverflow, ptr %3, i32 0, i32 6
  %5 = load ptr, ptr %4, align 8
  ret ptr %5
}

; Function Attrs: mustprogress nounwind uwtable
define linkonce_odr hidden noundef zeroext i1 @_ZNK6Thread22is_in_stack_range_inclEPhS0_(ptr noundef nonnull align 8 dereferenceable(888) %0, ptr noundef %1, ptr noundef %2) #1 comdat align 2 {
  %4 = alloca ptr, align 8
  %5 = alloca ptr, align 8
  %6 = alloca ptr, align 8
  store ptr %0, ptr %4, align 8
  store ptr %1, ptr %5, align 8
  store ptr %2, ptr %6, align 8
  %7 = load ptr, ptr %4, align 8
  %8 = load ptr, ptr %5, align 8
  %9 = load ptr, ptr %6, align 8
  %10 = call noundef zeroext i1 @_ZNK6Thread17is_in_stack_rangeEPhS0_b(ptr noundef nonnull align 8 dereferenceable(888) %7, ptr noundef %8, ptr noundef %9, i1 noundef zeroext true)
  ret i1 %10
}

; Function Attrs: mustprogress nounwind uwtable
define linkonce_odr hidden noundef ptr @_ZNK13StackOverflow24stack_reserved_zone_baseEv(ptr noundef nonnull align 8 dereferenceable(56) %0) #1 comdat align 2 {
  %2 = alloca ptr, align 8
  store ptr %0, ptr %2, align 8
  %3 = load ptr, ptr %2, align 8
  %4 = call noundef ptr @_ZNK13StackOverflow9stack_endEv(ptr noundef nonnull align 8 dereferenceable(56) %3)
  %5 = call noundef i64 @_ZN13StackOverflow19stack_red_zone_sizeEv()
  %6 = call noundef i64 @_ZN13StackOverflow22stack_yellow_zone_sizeEv()
  %7 = add i64 %5, %6
  %8 = call noundef i64 @_ZN13StackOverflow24stack_reserved_zone_sizeEv()
  %9 = add i64 %7, %8
  %10 = getelementptr inbounds i8, ptr %4, i64 %9
  ret ptr %10
}

; Function Attrs: mustprogress nounwind uwtable
define linkonce_odr hidden noundef i64 @_ZNK13UnifiedOopRef4addrImEET_v(ptr noundef nonnull align 8 dereferenceable(8) %0) #1 comdat align 2 {
  %2 = alloca ptr, align 8
  store ptr %0, ptr %2, align 8
  %3 = load ptr, ptr %2, align 8
  %4 = getelementptr inbounds %struct.UnifiedOopRef, ptr %3, i32 0, i32 0
  %5 = load i64, ptr %4, align 8
  %6 = and i64 %5, -8
  %7 = lshr i64 %6, 1
  ret i64 %7
}

; Function Attrs: mustprogress nounwind uwtable
define linkonce_odr hidden noundef zeroext i1 @_ZNK10JavaThread18is_in_usable_stackEPh(ptr noundef nonnull align 8 dereferenceable(1800) %0, ptr noundef %1) #1 comdat align 2 {
  %3 = alloca ptr, align 8
  %4 = alloca ptr, align 8
  store ptr %0, ptr %3, align 8
  store ptr %1, ptr %4, align 8
  %5 = load ptr, ptr %3, align 8
  %6 = load ptr, ptr %4, align 8
  %7 = getelementptr inbounds %class.JavaThread, ptr %5, i32 0, i32 50
  %8 = call noundef ptr @_ZNK13StackOverflow24stack_reserved_zone_baseEv(ptr noundef nonnull align 8 dereferenceable(56) %7)
  %9 = call noundef zeroext i1 @_ZNK6Thread22is_in_stack_range_inclEPhS0_(ptr noundef nonnull align 8 dereferenceable(888) %5, ptr noundef %6, ptr noundef %8)
  ret i1 %9
}

; Function Attrs: mustprogress nounwind uwtable
define linkonce_odr hidden noundef ptr @_ZNK13UnifiedOopRef4addrIPhEET_v(ptr noundef nonnull align 8 dereferenceable(8) %0) #1 comdat align 2 {
  %2 = alloca ptr, align 8
  store ptr %0, ptr %2, align 8
  %3 = load ptr, ptr %2, align 8
  %4 = call noundef i64 @_ZNK13UnifiedOopRef4addrImEET_v(ptr noundef nonnull align 8 dereferenceable(8) %3)
  %5 = inttoptr i64 %4 to ptr
  ret ptr %5
}

; Function Attrs: mustprogress nounwind uwtable
define hidden noundef zeroext i1 @_ZN28ReferenceToThreadRootClosure20do_thread_stack_fastEP10JavaThread(ptr noundef nonnull align 8 dereferenceable(9) %0, ptr noundef %1) #1 align 2 {
  %3 = alloca i1, align 1
  %4 = alloca ptr, align 8
  %5 = alloca ptr, align 8
  %6 = alloca %struct.RootCallbackInfo, align 8
  %7 = alloca i32, align 4
  %8 = alloca ptr, align 8
  %9 = alloca %struct.UnifiedOopRef, align 8
  store ptr %0, ptr %4, align 8
  store ptr %1, ptr %5, align 8
  %10 = load ptr, ptr %4, align 8
  %11 = getelementptr inbounds %class.ReferenceToThreadRootClosure, ptr %10, i32 0, i32 0
  %12 = load ptr, ptr %11, align 8
  %13 = load ptr, ptr %12, align 8
  %14 = getelementptr inbounds ptr, ptr %13, i64 1
  %15 = load ptr, ptr %14, align 8
  %16 = call noundef i32 %15(ptr noundef nonnull align 8 dereferenceable(8) %12)
  %17 = icmp eq i32 %16, 0
  br i1 %17, label %18, label %20

18:                                               ; preds = %2
  %19 = getelementptr inbounds %class.ReferenceToThreadRootClosure, ptr %10, i32 0, i32 1
  store i8 1, ptr %19, align 8
  store i1 true, ptr %3, align 1
  br label %70

20:                                               ; preds = %2
  %21 = getelementptr inbounds %struct.RootCallbackInfo, ptr %6, i32 0, i32 0
  store ptr null, ptr %21, align 8
  %22 = getelementptr inbounds %struct.RootCallbackInfo, ptr %6, i32 0, i32 1
  store ptr null, ptr %22, align 8
  %23 = load ptr, ptr %5, align 8
  %24 = getelementptr inbounds %struct.RootCallbackInfo, ptr %6, i32 0, i32 2
  store ptr %23, ptr %24, align 8
  %25 = getelementptr inbounds %struct.RootCallbackInfo, ptr %6, i32 0, i32 3
  store i32 2, ptr %25, align 8
  %26 = getelementptr inbounds %struct.RootCallbackInfo, ptr %6, i32 0, i32 4
  store i32 1, ptr %26, align 4
  store i32 0, ptr %7, align 4
  br label %27

27:                                               ; preds = %66, %20
  %28 = load i32, ptr %7, align 4
  %29 = getelementptr inbounds %class.ReferenceToThreadRootClosure, ptr %10, i32 0, i32 0
  %30 = load ptr, ptr %29, align 8
  %31 = load ptr, ptr %30, align 8
  %32 = getelementptr inbounds ptr, ptr %31, i64 1
  %33 = load ptr, ptr %32, align 8
  %34 = call noundef i32 %33(ptr noundef nonnull align 8 dereferenceable(8) %30)
  %35 = icmp slt i32 %28, %34
  br i1 %35, label %36, label %69

36:                                               ; preds = %27
  %37 = getelementptr inbounds %class.ReferenceToThreadRootClosure, ptr %10, i32 0, i32 0
  %38 = load ptr, ptr %37, align 8
  %39 = load i32, ptr %7, align 4
  %40 = load ptr, ptr %38, align 8
  %41 = getelementptr inbounds ptr, ptr %40, i64 2
  %42 = load ptr, ptr %41, align 8
  %43 = call i64 %42(ptr noundef nonnull align 8 dereferenceable(8) %38, i32 noundef %39)
  %44 = getelementptr inbounds %struct.UnifiedOopRef, ptr %9, i32 0, i32 0
  store i64 %43, ptr %44, align 8
  %45 = call noundef ptr @_ZNK13UnifiedOopRef4addrIPhEET_v(ptr noundef nonnull align 8 dereferenceable(8) %9)
  store ptr %45, ptr %8, align 8
  %46 = load ptr, ptr %5, align 8
  %47 = load ptr, ptr %8, align 8
  %48 = call noundef zeroext i1 @_ZNK10JavaThread18is_in_usable_stackEPh(ptr noundef nonnull align 8 dereferenceable(1800) %46, ptr noundef %47)
  br i1 %48, label %49, label %65

49:                                               ; preds = %36
  %50 = load ptr, ptr %8, align 8
  %51 = getelementptr inbounds %struct.RootCallbackInfo, ptr %6, i32 0, i32 0
  store ptr %50, ptr %51, align 8
  %52 = getelementptr inbounds %class.ReferenceToThreadRootClosure, ptr %10, i32 0, i32 0
  %53 = load ptr, ptr %52, align 8
  %54 = load ptr, ptr %53, align 8
  %55 = getelementptr inbounds ptr, ptr %54, i64 0
  %56 = load ptr, ptr %55, align 8
  %57 = call noundef zeroext i1 %56(ptr noundef nonnull align 8 dereferenceable(8) %53, ptr noundef nonnull align 8 dereferenceable(32) %6)
  %58 = getelementptr inbounds %class.ReferenceToThreadRootClosure, ptr %10, i32 0, i32 1
  %59 = zext i1 %57 to i8
  store i8 %59, ptr %58, align 8
  %60 = getelementptr inbounds %class.ReferenceToThreadRootClosure, ptr %10, i32 0, i32 1
  %61 = load i8, ptr %60, align 8
  %62 = trunc i8 %61 to i1
  br i1 %62, label %63, label %64

63:                                               ; preds = %49
  store i1 true, ptr %3, align 1
  br label %70

64:                                               ; preds = %49
  br label %65

65:                                               ; preds = %64, %36
  br label %66

66:                                               ; preds = %65
  %67 = load i32, ptr %7, align 4
  %68 = add nsw i32 %67, 1
  store i32 %68, ptr %7, align 4
  br label %27, !llvm.loop !6

69:                                               ; preds = %27
  store i1 false, ptr %3, align 1
  br label %70

70:                                               ; preds = %69, %63, %18
  %71 = load i1, ptr %3, align 1
  ret i1 %71
}