; Function Attrs: mustprogress nounwind uwtable
define hidden noundef zeroext i1 @_ZN28ReferenceToThreadRootClosure20do_thread_stack_fastEP10JavaThread(ptr nocapture noundef nonnull align 8 dereferenceable(9) %0, ptr noundef %1) local_unnamed_addr #0 align 2 {
  %3 = alloca %struct.RootCallbackInfo, align 8
  %4 = load ptr, ptr %0, align 8
  %5 = load ptr, ptr %4, align 8
  %6 = getelementptr inbounds i8, ptr %5, i64 8
  %7 = load ptr, ptr %6, align 8
  %8 = tail call noundef i32 %7(ptr noundef nonnull align 8 dereferenceable(8) %4) #8
  %9 = icmp eq i32 %8, 0
  br i1 %9, label %10, label %12

10:                                               ; preds = %2
  %11 = getelementptr inbounds i8, ptr %0, i64 8
  store i8 1, ptr %11, align 8
  br label %.loopexit

12:                                               ; preds = %2
  %13 = getelementptr inbounds i8, ptr %3, i64 16
  call void @llvm.memset.p0.i64(ptr noundef nonnull align 8 dereferenceable(16) %3, i8 0, i64 16, i1 false)
  store ptr %1, ptr %13, align 8
  %14 = getelementptr inbounds i8, ptr %3, i64 24
  store i32 2, ptr %14, align 8
  %15 = getelementptr inbounds i8, ptr %3, i64 28
  store i32 1, ptr %15, align 4
  %16 = load ptr, ptr %0, align 8
  %17 = load ptr, ptr %16, align 8
  %18 = getelementptr inbounds i8, ptr %17, i64 8
  %19 = load ptr, ptr %18, align 8
  %20 = tail call noundef i32 %19(ptr noundef nonnull align 8 dereferenceable(8) %16) #8
  %21 = icmp sgt i32 %20, 0
  br i1 %21, label %.lr.ph, label %.loopexit

.lr.ph:                                           ; preds = %12
  %22 = getelementptr inbounds i8, ptr %1, i64 1272
  %23 = getelementptr inbounds i8, ptr %1, i64 824
  %24 = getelementptr inbounds i8, ptr %0, i64 8
  br label %25

25:                                               ; preds = %.lr.ph, %50
  %.089 = phi i32 [ 0, %.lr.ph ], [ %51, %50 ]
  %26 = load ptr, ptr %0, align 8
  %27 = load ptr, ptr %26, align 8
  %28 = getelementptr inbounds i8, ptr %27, i64 16
  %29 = load ptr, ptr %28, align 8
  %30 = call i64 %29(ptr noundef nonnull align 8 dereferenceable(8) %26, i32 noundef %.089) #8
  %31 = lshr i64 %30, 1
  %32 = and i64 %31, 9223372036854775804
  %33 = inttoptr i64 %32 to ptr
  %34 = load ptr, ptr %22, align 8
  %35 = load i64, ptr @_ZN13StackOverflow20_stack_red_zone_sizeE, align 8
  %36 = load i64, ptr @_ZN13StackOverflow23_stack_yellow_zone_sizeE, align 8
  %37 = load i64, ptr @_ZN13StackOverflow25_stack_reserved_zone_sizeE, align 8
  %38 = getelementptr i8, ptr %34, i64 %35
  %39 = getelementptr i8, ptr %38, i64 %36
  %40 = getelementptr i8, ptr %39, i64 %37
  %41 = load ptr, ptr %23, align 8
  %42 = icmp ugt ptr %41, %33
  %43 = icmp ule ptr %40, %33
  %spec.select.i.i = and i1 %43, %42
  br i1 %spec.select.i.i, label %44, label %50

44:                                               ; preds = %25
  store ptr %33, ptr %3, align 8
  %45 = load ptr, ptr %0, align 8
  %46 = load ptr, ptr %45, align 8
  %47 = load ptr, ptr %46, align 8
  %48 = call noundef zeroext i1 %47(ptr noundef nonnull align 8 dereferenceable(8) %45, ptr noundef nonnull align 8 dereferenceable(32) %3) #8
  %49 = zext i1 %48 to i8
  store i8 %49, ptr %24, align 8
  br i1 %48, label %.loopexit, label %50

50:                                               ; preds = %25, %44
  %51 = add nuw nsw i32 %.089, 1
  %52 = load ptr, ptr %0, align 8
  %53 = load ptr, ptr %52, align 8
  %54 = getelementptr inbounds i8, ptr %53, i64 8
  %55 = load ptr, ptr %54, align 8
  %56 = call noundef i32 %55(ptr noundef nonnull align 8 dereferenceable(8) %52) #8
  %57 = icmp slt i32 %51, %56
  br i1 %57, label %25, label %.loopexit, !llvm.loop !9

.loopexit:                                        ; preds = %44, %50, %12, %10
  %.0 = phi i1 [ true, %10 ], [ false, %12 ], [ true, %44 ], [ false, %50 ]
  ret i1 %.0
}